target datalayout = "e-m:e-p270:32:32-p271:32:32-p272:64:64-i64:64-i128:128-f80:128-n8:16:32:64-S128"
target triple = "x86_64-pc-linux-gnu"

%struct.Vmem = type { ptr, i64, i64 }
%struct.DeclTable = type { i32, i32, i32, ptr }
%struct.Decl_ = type { ptr, ptr, %union.SourceSpan, i64, %union.anon, i32, %union.anon.0, i64, ptr, ptr, ptr, %union.anon.1 }
%union.SourceSpan = type { i64 }
%union.anon = type { ptr }
%union.anon.0 = type { i16 }
%union.anon.1 = type { %struct.FuncDecl }
%struct.FuncDecl = type { i32, [4 x i8], %struct.Signature_, i32, i32, %union.anon.8 }
%struct.Signature_ = type <{ %struct.CalleeAttributes, i16, i8, i32, i32, [4 x i8], ptr }>
%struct.CalleeAttributes = type { i8 }
%union.anon.8 = type { %struct.anon.9 }
%struct.anon.9 = type { i16, %union.anon.10 }
%union.anon.10 = type { ptr }

@decl_arena = external global %struct.Vmem, align 8

; Function Attrs: nounwind uwtable
define internal ptr @declptr(i32 noundef %0) #0 {
  %2 = alloca i32, align 4
  store i32 %0, ptr %2, align 4
  %3 = load ptr, ptr @decl_arena, align 8
  %4 = load i32, ptr %2, align 4
  %5 = zext i32 %4 to i64
  %6 = getelementptr inbounds %struct.Decl_, ptr %3, i64 %5
  ret ptr %6
}

; Function Attrs: nounwind uwtable
define internal ptr @declentry_find(ptr noundef %0, i32 noundef %1, ptr noundef %2) #0 {
  %4 = alloca ptr, align 8
  %5 = alloca ptr, align 8
  %6 = alloca i32, align 4
  %7 = alloca ptr, align 8
  %8 = alloca i64, align 8
  %9 = alloca i32, align 4
  %10 = alloca i32, align 4
  %11 = alloca ptr, align 8
  %12 = alloca i32, align 4
  %13 = alloca ptr, align 8
  store ptr %0, ptr %5, align 8
  store i32 %1, ptr %6, align 4
  store ptr %2, ptr %7, align 8
  %14 = load ptr, ptr %7, align 8
  %15 = ptrtoint ptr %14 to i64
  store i64 %15, ptr %8, align 8
  %16 = load i32, ptr %6, align 4
  %17 = sub i32 %16, 1
  store i32 %17, ptr %9, align 4
  %18 = load i64, ptr %8, align 8
  %19 = lshr i64 %18, 16
  %20 = load i64, ptr %8, align 8
  %21 = xor i64 %20, %19
  store i64 %21, ptr %8, align 8
  %22 = load i64, ptr %8, align 8
  %23 = trunc i64 %22 to i32
  %24 = load i32, ptr %9, align 4
  %25 = and i32 %23, %24
  store i32 %25, ptr %10, align 4
  br label %26

26:                                               ; preds = %48, %3
  %27 = load ptr, ptr %5, align 8
  %28 = load i32, ptr %10, align 4
  %29 = zext i32 %28 to i64
  %30 = getelementptr inbounds i32, ptr %27, i64 %29
  store ptr %30, ptr %11, align 8
  %31 = load ptr, ptr %11, align 8
  %32 = load i32, ptr %31, align 4
  store i32 %32, ptr %12, align 4
  %33 = load i32, ptr %12, align 4
  %34 = icmp ne i32 %33, 0
  br i1 %34, label %37, label %35

35:                                               ; preds = %26
  %36 = load ptr, ptr %11, align 8
  store ptr %36, ptr %4, align 8
  br label %53

37:                                               ; preds = %26
  %38 = load ptr, ptr %11, align 8
  %39 = load i32, ptr %38, align 4
  %40 = call ptr @declptr(i32 noundef %39)
  store ptr %40, ptr %13, align 8
  %41 = load ptr, ptr %13, align 8
  %42 = getelementptr inbounds %struct.Decl_, ptr %41, i32 0, i32 0
  %43 = load ptr, ptr %42, align 8
  %44 = load ptr, ptr %7, align 8
  %45 = icmp eq ptr %43, %44
  br i1 %45, label %46, label %48

46:                                               ; preds = %37
  %47 = load ptr, ptr %11, align 8
  store ptr %47, ptr %4, align 8
  br label %53

48:                                               ; preds = %37
  %49 = load i32, ptr %10, align 4
  %50 = add i32 %49, 1
  %51 = load i32, ptr %9, align 4
  %52 = and i32 %50, %51
  store i32 %52, ptr %10, align 4
  br label %26

53:                                               ; preds = %46, %35
  %54 = load ptr, ptr %4, align 8
  ret ptr %54
}

; Function Attrs: nounwind uwtable
define dso_local i32 @decltable_get(ptr noundef %0, ptr noundef %1) #0 {
  %3 = alloca i32, align 4
  %4 = alloca ptr, align 8
  %5 = alloca ptr, align 8
  %6 = alloca ptr, align 8
  store ptr %0, ptr %4, align 8
  store ptr %1, ptr %5, align 8
  %7 = load ptr, ptr %4, align 8
  %8 = getelementptr inbounds %struct.DeclTable, ptr %7, i32 0, i32 3
  %9 = load ptr, ptr %8, align 8
  %10 = icmp ne ptr %9, null
  br i1 %10, label %12, label %11

11:                                               ; preds = %2
  store i32 0, ptr %3, align 4
  br label %23

12:                                               ; preds = %2
  %13 = load ptr, ptr %4, align 8
  %14 = getelementptr inbounds %struct.DeclTable, ptr %13, i32 0, i32 3
  %15 = load ptr, ptr %14, align 8
  %16 = load ptr, ptr %4, align 8
  %17 = getelementptr inbounds %struct.DeclTable, ptr %16, i32 0, i32 1
  %18 = load i32, ptr %17, align 4
  %19 = load ptr, ptr %5, align 8
  %20 = call ptr @declentry_find(ptr noundef %15, i32 noundef %18, ptr noundef %19)
  store ptr %20, ptr %6, align 8
  %21 = load ptr, ptr %6, align 8
  %22 = load i32, ptr %21, align 4
  store i32 %22, ptr %3, align 4
  br label %23

23:                                               ; preds = %12, %11
  %24 = load i32, ptr %3, align 4
  ret i32 %24
}