; Function Attrs: nofree norecurse nosync nounwind memory(read, inaccessiblemem: none) uwtable
define dso_local i32 @decltable_get(ptr nocapture noundef readonly %0, ptr noundef %1) local_unnamed_addr #1 {
  %3 = getelementptr inbounds i8, ptr %0, i64 16
  %4 = load ptr, ptr %3, align 8
  %.not = icmp eq ptr %4, null
  br i1 %.not, label %declentry_find.exit, label %5

5:                                                ; preds = %2
  %6 = getelementptr inbounds i8, ptr %0, i64 4
  %7 = load i32, ptr %6, align 4
  %8 = ptrtoint ptr %1 to i64
  %9 = add i32 %7, -1
  %10 = lshr i64 %8, 16
  %11 = xor i64 %10, %8
  %12 = trunc i64 %11 to i32
  %13 = and i32 %9, %12
  %14 = zext i32 %13 to i64
  %15 = getelementptr inbounds i32, ptr %4, i64 %14
  %16 = load i32, ptr %15, align 4
  %.not19.i = icmp eq i32 %16, 0
  br i1 %.not19.i, label %declentry_find.exit, label %.lr.ph.i

.lr.ph.i:                                         ; preds = %5
  %17 = load ptr, ptr @decl_arena, align 8
  %18 = zext i32 %16 to i64
  %19 = getelementptr inbounds %struct.Decl_, ptr %17, i64 %18
  %20 = load ptr, ptr %19, align 8
  %21 = icmp eq ptr %20, %1
  br i1 %21, label %declentry_find.exit, label %.lr.ph

22:                                               ; preds = %.lr.ph
  %23 = zext i32 %31 to i64
  %24 = getelementptr inbounds %struct.Decl_, ptr %17, i64 %23
  %25 = load ptr, ptr %24, align 8
  %26 = icmp eq ptr %25, %1
  br i1 %26, label %declentry_find.exit, label %.lr.ph

.lr.ph:                                           ; preds = %.lr.ph.i, %22
  %.01720.i6 = phi i32 [ %28, %22 ], [ %13, %.lr.ph.i ]
  %27 = add i32 %.01720.i6, 1
  %28 = and i32 %27, %9
  %29 = zext i32 %28 to i64
  %30 = getelementptr inbounds i32, ptr %4, i64 %29
  %31 = load i32, ptr %30, align 4
  %.not.i = icmp eq i32 %31, 0
  br i1 %.not.i, label %declentry_find.exit, label %22

declentry_find.exit:                              ; preds = %22, %.lr.ph, %5, %.lr.ph.i, %2
  %.0 = phi i32 [ 0, %2 ], [ 0, %5 ], [ %16, %.lr.ph.i ], [ 0, %.lr.ph ], [ %31, %22 ]
  ret i32 %.0
}